; Function Attrs: nounwind sspstrong uwtable
define internal ptr @child_job_get_parent_aio_context(ptr noundef readonly captures(none) %0) #0 {
glib_autoptr_cleanup_QemuLockable.exit:
  %1 = getelementptr inbounds nuw i8, ptr %0, i64 32
  %2 = load ptr, ptr %1, align 8
  %3 = load atomic i64, ptr @qemu_mutex_lock_func monotonic, align 8
  %4 = inttoptr i64 %3 to ptr
  tail call void %4(ptr noundef nonnull @job_mutex, ptr noundef nonnull @.str.13, i32 noundef 56) #8
  %5 = getelementptr inbounds nuw i8, ptr %2, i64 112
  %6 = load ptr, ptr %5, align 8
  tail call void @qemu_mutex_unlock_impl(ptr noundef nonnull @job_mutex, ptr noundef nonnull @.str.13, i32 noundef 56) #8
  ret ptr %6
}